target datalayout = "e-m:e-p270:32:32-p271:32:32-p272:64:64-i64:64-i128:128-f80:128-n8:16:32:64-S128"
target triple = "x86_64-pc-linux-gnu"

%struct._lv_imagebutton_t = type { %struct._lv_obj_t, [6 x %struct._lv_imagebutton_src_info_t], [6 x %struct._lv_imagebutton_src_info_t], [6 x %struct._lv_imagebutton_src_info_t] }
%struct._lv_obj_t = type { ptr, ptr, ptr, ptr, ptr, %struct.lv_area_t, i32, i16, i16 }
%struct.lv_area_t = type { i32, i32, i32, i32 }
%struct._lv_imagebutton_src_info_t = type { ptr, %struct.lv_image_header_t }
%struct.lv_image_header_t = type <{ i64, i32 }>

; Function Attrs: nounwind uwtable
define internal i32 @suggest_state(ptr noundef %0, i32 noundef %1) #0 {
  %3 = alloca i32, align 4
  %4 = alloca ptr, align 8
  %5 = alloca i32, align 4
  %6 = alloca ptr, align 8
  %7 = alloca i32, align 4
  store ptr %0, ptr %4, align 8, !tbaa !3
  store i32 %1, ptr %5, align 4, !tbaa !7
  call void @llvm.lifetime.start.p0(i64 8, ptr %6) #5
  %8 = load ptr, ptr %4, align 8, !tbaa !3
  store ptr %8, ptr %6, align 8, !tbaa !3
  %9 = load ptr, ptr %6, align 8, !tbaa !3
  %10 = getelementptr inbounds nuw %struct._lv_imagebutton_t, ptr %9, i32 0, i32 1
  %11 = load i32, ptr %5, align 4, !tbaa !7
  %12 = zext i32 %11 to i64
  %13 = getelementptr inbounds nuw [6 x %struct._lv_imagebutton_src_info_t], ptr %10, i64 0, i64 %12
  %14 = getelementptr inbounds nuw %struct._lv_imagebutton_src_info_t, ptr %13, i32 0, i32 0
  %15 = load ptr, ptr %14, align 8, !tbaa !11
  %16 = icmp eq ptr %15, null
  br i1 %16, label %17, label %90

17:                                               ; preds = %2
  %18 = load i32, ptr %5, align 4, !tbaa !7
  switch i32 %18, label %88 [
    i32 1, label %19
    i32 3, label %28
    i32 4, label %37
    i32 2, label %62
    i32 5, label %71
  ]

19:                                               ; preds = %17
  %20 = load ptr, ptr %6, align 8, !tbaa !3
  %21 = getelementptr inbounds nuw %struct._lv_imagebutton_t, ptr %20, i32 0, i32 1
  %22 = getelementptr inbounds [6 x %struct._lv_imagebutton_src_info_t], ptr %21, i64 0, i64 0
  %23 = getelementptr inbounds nuw %struct._lv_imagebutton_src_info_t, ptr %22, i32 0, i32 0
  %24 = load ptr, ptr %23, align 8, !tbaa !11
  %25 = icmp ne ptr %24, null
  br i1 %25, label %26, label %27

26:                                               ; preds = %19
  store i32 0, ptr %3, align 4
  store i32 1, ptr %7, align 4
  br label %92

27:                                               ; preds = %19
  br label %89

28:                                               ; preds = %17
  %29 = load ptr, ptr %6, align 8, !tbaa !3
  %30 = getelementptr inbounds nuw %struct._lv_imagebutton_t, ptr %29, i32 0, i32 1
  %31 = getelementptr inbounds [6 x %struct._lv_imagebutton_src_info_t], ptr %30, i64 0, i64 0
  %32 = getelementptr inbounds nuw %struct._lv_imagebutton_src_info_t, ptr %31, i32 0, i32 0
  %33 = load ptr, ptr %32, align 8, !tbaa !11
  %34 = icmp ne ptr %33, null
  br i1 %34, label %35, label %36

35:                                               ; preds = %28
  store i32 0, ptr %3, align 4
  store i32 1, ptr %7, align 4
  br label %92

36:                                               ; preds = %28
  br label %89

37:                                               ; preds = %17
  %38 = load ptr, ptr %6, align 8, !tbaa !3
  %39 = getelementptr inbounds nuw %struct._lv_imagebutton_t, ptr %38, i32 0, i32 1
  %40 = getelementptr inbounds [6 x %struct._lv_imagebutton_src_info_t], ptr %39, i64 0, i64 3
  %41 = getelementptr inbounds nuw %struct._lv_imagebutton_src_info_t, ptr %40, i32 0, i32 0
  %42 = load ptr, ptr %41, align 8, !tbaa !11
  %43 = icmp ne ptr %42, null
  br i1 %43, label %44, label %45

44:                                               ; preds = %37
  store i32 3, ptr %3, align 4
  store i32 1, ptr %7, align 4
  br label %92

45:                                               ; preds = %37
  %46 = load ptr, ptr %6, align 8, !tbaa !3
  %47 = getelementptr inbounds nuw %struct._lv_imagebutton_t, ptr %46, i32 0, i32 1
  %48 = getelementptr inbounds [6 x %struct._lv_imagebutton_src_info_t], ptr %47, i64 0, i64 1
  %49 = getelementptr inbounds nuw %struct._lv_imagebutton_src_info_t, ptr %48, i32 0, i32 0
  %50 = load ptr, ptr %49, align 8, !tbaa !11
  %51 = icmp ne ptr %50, null
  br i1 %51, label %52, label %53

52:                                               ; preds = %45
  store i32 1, ptr %3, align 4
  store i32 1, ptr %7, align 4
  br label %92

53:                                               ; preds = %45
  %54 = load ptr, ptr %6, align 8, !tbaa !3
  %55 = getelementptr inbounds nuw %struct._lv_imagebutton_t, ptr %54, i32 0, i32 1
  %56 = getelementptr inbounds [6 x %struct._lv_imagebutton_src_info_t], ptr %55, i64 0, i64 0
  %57 = getelementptr inbounds nuw %struct._lv_imagebutton_src_info_t, ptr %56, i32 0, i32 0
  %58 = load ptr, ptr %57, align 8, !tbaa !11
  %59 = icmp ne ptr %58, null
  br i1 %59, label %60, label %61

60:                                               ; preds = %53
  store i32 0, ptr %3, align 4
  store i32 1, ptr %7, align 4
  br label %92

61:                                               ; preds = %53
  br label %89

62:                                               ; preds = %17
  %63 = load ptr, ptr %6, align 8, !tbaa !3
  %64 = getelementptr inbounds nuw %struct._lv_imagebutton_t, ptr %63, i32 0, i32 1
  %65 = getelementptr inbounds [6 x %struct._lv_imagebutton_src_info_t], ptr %64, i64 0, i64 0
  %66 = getelementptr inbounds nuw %struct._lv_imagebutton_src_info_t, ptr %65, i32 0, i32 0
  %67 = load ptr, ptr %66, align 8, !tbaa !11
  %68 = icmp ne ptr %67, null
  br i1 %68, label %69, label %70

69:                                               ; preds = %62
  store i32 0, ptr %3, align 4
  store i32 1, ptr %7, align 4
  br label %92

70:                                               ; preds = %62
  br label %89

71:                                               ; preds = %17
  %72 = load ptr, ptr %6, align 8, !tbaa !3
  %73 = getelementptr inbounds nuw %struct._lv_imagebutton_t, ptr %72, i32 0, i32 1
  %74 = getelementptr inbounds [6 x %struct._lv_imagebutton_src_info_t], ptr %73, i64 0, i64 3
  %75 = getelementptr inbounds nuw %struct._lv_imagebutton_src_info_t, ptr %74, i32 0, i32 0
  %76 = load ptr, ptr %75, align 8, !tbaa !11
  %77 = icmp ne ptr %76, null
  br i1 %77, label %78, label %79

78:                                               ; preds = %71
  store i32 3, ptr %3, align 4
  store i32 1, ptr %7, align 4
  br label %92

79:                                               ; preds = %71
  %80 = load ptr, ptr %6, align 8, !tbaa !3
  %81 = getelementptr inbounds nuw %struct._lv_imagebutton_t, ptr %80, i32 0, i32 1
  %82 = getelementptr inbounds [6 x %struct._lv_imagebutton_src_info_t], ptr %81, i64 0, i64 0
  %83 = getelementptr inbounds nuw %struct._lv_imagebutton_src_info_t, ptr %82, i32 0, i32 0
  %84 = load ptr, ptr %83, align 8, !tbaa !11
  %85 = icmp ne ptr %84, null
  br i1 %85, label %86, label %87

86:                                               ; preds = %79
  store i32 0, ptr %3, align 4
  store i32 1, ptr %7, align 4
  br label %92

87:                                               ; preds = %79
  br label %89

88:                                               ; preds = %17
  br label %89

89:                                               ; preds = %88, %87, %70, %61, %36, %27
  br label %90

90:                                               ; preds = %89, %2
  %91 = load i32, ptr %5, align 4, !tbaa !7
  store i32 %91, ptr %3, align 4
  store i32 1, ptr %7, align 4
  br label %92

92:                                               ; preds = %90, %86, %78, %69, %60, %52, %44, %35, %26
  call void @llvm.lifetime.end.p0(i64 8, ptr %6) #5
  %93 = load i32, ptr %3, align 4
  ret i32 %93
}

; Function Attrs: nounwind uwtable
define internal i32 @get_state(ptr noundef %0) #0 {
  %2 = alloca i32, align 4
  %3 = alloca ptr, align 8
  %4 = alloca i16, align 2
  %5 = alloca i32, align 4
  store ptr %0, ptr %3, align 8, !tbaa !3
  br label %6

6:                                                ; preds = %1
  br label %7

7:                                                ; preds = %6
  call void @llvm.lifetime.start.p0(i64 2, ptr %4) #5
  %8 = load ptr, ptr %3, align 8, !tbaa !3
  %9 = call zeroext i16 @lv_obj_get_state(ptr noundef %8)
  store i16 %9, ptr %4, align 2, !tbaa !16
  %10 = load i16, ptr %4, align 2, !tbaa !16
  %11 = zext i16 %10 to i32
  %12 = and i32 %11, 128
  %13 = icmp ne i32 %12, 0
  br i1 %13, label %14, label %21

14:                                               ; preds = %7
  %15 = load i16, ptr %4, align 2, !tbaa !16
  %16 = zext i16 %15 to i32
  %17 = and i32 %16, 1
  %18 = icmp ne i32 %17, 0
  br i1 %18, label %19, label %20

19:                                               ; preds = %14
  store i32 5, ptr %2, align 4
  store i32 1, ptr %5, align 4
  br label %40

20:                                               ; preds = %14
  store i32 2, ptr %2, align 4
  store i32 1, ptr %5, align 4
  br label %40

21:                                               ; preds = %7
  %22 = load i16, ptr %4, align 2, !tbaa !16
  %23 = zext i16 %22 to i32
  %24 = and i32 %23, 1
  %25 = icmp ne i32 %24, 0
  br i1 %25, label %26, label %33

26:                                               ; preds = %21
  %27 = load i16, ptr %4, align 2, !tbaa !16
  %28 = zext i16 %27 to i32
  %29 = and i32 %28, 32
  %30 = icmp ne i32 %29, 0
  br i1 %30, label %31, label %32

31:                                               ; preds = %26
  store i32 4, ptr %2, align 4
  store i32 1, ptr %5, align 4
  br label %40

32:                                               ; preds = %26
  store i32 3, ptr %2, align 4
  store i32 1, ptr %5, align 4
  br label %40

33:                                               ; preds = %21
  %34 = load i16, ptr %4, align 2, !tbaa !16
  %35 = zext i16 %34 to i32
  %36 = and i32 %35, 32
  %37 = icmp ne i32 %36, 0
  br i1 %37, label %38, label %39

38:                                               ; preds = %33
  store i32 1, ptr %2, align 4
  store i32 1, ptr %5, align 4
  br label %40

39:                                               ; preds = %33
  store i32 0, ptr %2, align 4
  store i32 1, ptr %5, align 4
  br label %40

40:                                               ; preds = %39, %38, %32, %31, %20, %19
  call void @llvm.lifetime.end.p0(i64 2, ptr %4) #5
  %41 = load i32, ptr %2, align 4
  ret i32 %41
}

; Function Attrs: nounwind uwtable
define internal void @refr_image(ptr noundef %0) #0 {
  %2 = alloca ptr, align 8
  %3 = alloca ptr, align 8
  %4 = alloca i32, align 4
  %5 = alloca ptr, align 8
  %6 = alloca i32, align 4
  store ptr %0, ptr %2, align 8, !tbaa !3
  call void @llvm.lifetime.start.p0(i64 8, ptr %3) #5
  %7 = load ptr, ptr %2, align 8, !tbaa !3
  store ptr %7, ptr %3, align 8, !tbaa !3
  call void @llvm.lifetime.start.p0(i64 4, ptr %4) #5
  %8 = load ptr, ptr %2, align 8, !tbaa !3
  %9 = load ptr, ptr %2, align 8, !tbaa !3
  %10 = call i32 @get_state(ptr noundef %9)
  %11 = call i32 @suggest_state(ptr noundef %8, i32 noundef %10)
  store i32 %11, ptr %4, align 4, !tbaa !7
  call void @llvm.lifetime.start.p0(i64 8, ptr %5) #5
  %12 = load ptr, ptr %3, align 8, !tbaa !3
  %13 = getelementptr inbounds nuw %struct._lv_imagebutton_t, ptr %12, i32 0, i32 1
  %14 = load i32, ptr %4, align 4, !tbaa !7
  %15 = zext i32 %14 to i64
  %16 = getelementptr inbounds nuw [6 x %struct._lv_imagebutton_src_info_t], ptr %13, i64 0, i64 %15
  %17 = getelementptr inbounds nuw %struct._lv_imagebutton_src_info_t, ptr %16, i32 0, i32 0
  %18 = load ptr, ptr %17, align 8, !tbaa !11
  store ptr %18, ptr %5, align 8, !tbaa !3
  %19 = load ptr, ptr %5, align 8, !tbaa !3
  %20 = icmp eq ptr %19, null
  br i1 %20, label %21, label %22

21:                                               ; preds = %1
  store i32 1, ptr %6, align 4
  br label %36

22:                                               ; preds = %1
  %23 = load ptr, ptr %2, align 8, !tbaa !3
  %24 = call zeroext i1 @lv_obj_refresh_self_size(ptr noundef %23)
  %25 = load ptr, ptr %2, align 8, !tbaa !3
  %26 = load ptr, ptr %3, align 8, !tbaa !3
  %27 = getelementptr inbounds nuw %struct._lv_imagebutton_t, ptr %26, i32 0, i32 1
  %28 = load i32, ptr %4, align 4, !tbaa !7
  %29 = zext i32 %28 to i64
  %30 = getelementptr inbounds nuw [6 x %struct._lv_imagebutton_src_info_t], ptr %27, i64 0, i64 %29
  %31 = getelementptr inbounds nuw %struct._lv_imagebutton_src_info_t, ptr %30, i32 0, i32 1
  %32 = load i64, ptr %31, align 8
  %33 = lshr i64 %32, 48
  %34 = trunc i64 %33 to i32
  call void @lv_obj_set_height(ptr noundef %25, i32 noundef %34)
  %35 = load ptr, ptr %2, align 8, !tbaa !3
  call void @lv_obj_invalidate(ptr noundef %35)
  store i32 0, ptr %6, align 4
  br label %36

36:                                               ; preds = %22, %21
  call void @llvm.lifetime.end.p0(i64 8, ptr %5) #5
  call void @llvm.lifetime.end.p0(i64 4, ptr %4) #5
  call void @llvm.lifetime.end.p0(i64 8, ptr %3) #5
  %37 = load i32, ptr %6, align 4
  switch i32 %37, label %39 [
    i32 0, label %38
    i32 1, label %38
  ]

38:                                               ; preds = %36, %36
  ret void

39:                                               ; preds = %36
  unreachable
}