; Function Attrs: nounwind uwtable
define internal fastcc void @refr_image(ptr noundef %0) unnamed_addr #0 {
  %2 = tail call zeroext i16 @lv_obj_get_state(ptr noundef %0) #6
  %3 = zext i16 %2 to i32
  %4 = and i32 %3, 128
  %.not.i = icmp eq i32 %4, 0
  %5 = and i32 %3, 1
  %.not6.i = icmp eq i32 %5, 0
  br i1 %.not.i, label %7, label %6

6:                                                ; preds = %1
  %..i = select i1 %.not6.i, i32 2, i32 5
  br label %get_state.exit

7:                                                ; preds = %1
  br i1 %.not6.i, label %10, label %8

8:                                                ; preds = %7
  %9 = and i32 %3, 32
  %.not8.i = icmp eq i32 %9, 0
  %.10.i = select i1 %.not8.i, i32 3, i32 4
  br label %get_state.exit

10:                                               ; preds = %7
  %11 = lshr i32 %3, 5
  %.lobit.i = and i32 %11, 1
  br label %get_state.exit

get_state.exit:                                   ; preds = %6, %8, %10
  %.0.i = phi i32 [ %..i, %6 ], [ %.10.i, %8 ], [ %.lobit.i, %10 ]
  %12 = getelementptr inbounds nuw i8, ptr %0, i64 64
  %13 = zext nneg i32 %.0.i to i64
  %14 = getelementptr inbounds nuw [6 x %struct._lv_imagebutton_src_info_t], ptr %12, i64 0, i64 %13
  %15 = load ptr, ptr %14, align 8, !tbaa !3
  %16 = icmp eq ptr %15, null
  br i1 %16, label %17, label %37

17:                                               ; preds = %get_state.exit
  switch i32 %.0.i, label %37 [
    i32 1, label %18
    i32 3, label %20
    i32 4, label %22
    i32 2, label %30
    i32 5, label %32
  ]

18:                                               ; preds = %17
  %19 = load ptr, ptr %12, align 8, !tbaa !3
  %.not19.i = icmp eq ptr %19, null
  br i1 %.not19.i, label %37, label %suggest_state.exit

20:                                               ; preds = %17
  %21 = load ptr, ptr %12, align 8, !tbaa !3
  %.not18.i = icmp eq ptr %21, null
  br i1 %.not18.i, label %37, label %suggest_state.exit

22:                                               ; preds = %17
  %23 = getelementptr inbounds i8, ptr %0, i64 136
  %24 = load ptr, ptr %23, align 8, !tbaa !3
  %.not15.i = icmp eq ptr %24, null
  br i1 %.not15.i, label %25, label %suggest_state.exit

25:                                               ; preds = %22
  %26 = getelementptr inbounds i8, ptr %0, i64 88
  %27 = load ptr, ptr %26, align 8, !tbaa !3
  %.not16.i = icmp eq ptr %27, null
  br i1 %.not16.i, label %28, label %suggest_state.exit

28:                                               ; preds = %25
  %29 = load ptr, ptr %12, align 8, !tbaa !3
  %.not17.i = icmp eq ptr %29, null
  br i1 %.not17.i, label %37, label %suggest_state.exit

30:                                               ; preds = %17
  %31 = load ptr, ptr %12, align 8, !tbaa !3
  %.not14.i = icmp eq ptr %31, null
  br i1 %.not14.i, label %37, label %suggest_state.exit

32:                                               ; preds = %17
  %33 = getelementptr inbounds i8, ptr %0, i64 136
  %34 = load ptr, ptr %33, align 8, !tbaa !3
  %.not.i11 = icmp eq ptr %34, null
  br i1 %.not.i11, label %35, label %suggest_state.exit

35:                                               ; preds = %32
  %36 = load ptr, ptr %12, align 8, !tbaa !3
  %.not13.i = icmp eq ptr %36, null
  br i1 %.not13.i, label %37, label %suggest_state.exit

37:                                               ; preds = %35, %30, %28, %20, %18, %17, %get_state.exit
  br label %suggest_state.exit

suggest_state.exit:                               ; preds = %18, %20, %22, %25, %28, %30, %32, %35, %37
  %.0.i10 = phi i64 [ %13, %37 ], [ 0, %18 ], [ 0, %20 ], [ 3, %22 ], [ 1, %25 ], [ 0, %28 ], [ 0, %30 ], [ 3, %32 ], [ 0, %35 ]
  %38 = getelementptr inbounds nuw [6 x %struct._lv_imagebutton_src_info_t], ptr %12, i64 0, i64 %.0.i10
  %39 = load ptr, ptr %38, align 8, !tbaa !3
  %40 = icmp eq ptr %39, null
  br i1 %40, label %47, label %41

41:                                               ; preds = %suggest_state.exit
  %42 = tail call zeroext i1 @lv_obj_refresh_self_size(ptr noundef nonnull %0) #6
  %43 = getelementptr inbounds nuw i8, ptr %38, i64 8
  %44 = load i64, ptr %43, align 8
  %45 = lshr i64 %44, 48
  %46 = trunc nuw nsw i64 %45 to i32
  tail call void @lv_obj_set_height(ptr noundef nonnull %0, i32 noundef %46) #6
  tail call void @lv_obj_invalidate(ptr noundef nonnull %0) #6
  br label %47

47:                                               ; preds = %suggest_state.exit, %41
  ret void
}